target datalayout = "e-m:e-p270:32:32-p271:32:32-p272:64:64-i64:64-i128:128-f80:128-n8:16:32:64-S128"
target triple = "x86_64-pc-linux-gnu"

%struct.mbedtls_mpi = type { ptr, i16, i16 }
%union.mbedtls_ssl_user_data_t = type { i64 }
%struct.mbedtls_ssl_context = type { ptr, i32, i32, i32, i32, i32, ptr, ptr, ptr, ptr, ptr, ptr, ptr, ptr, ptr, ptr, ptr, ptr, ptr, ptr, ptr, ptr, ptr, ptr, ptr, ptr, ptr, ptr, ptr, ptr, ptr, ptr, ptr, i32, i64, i64, i16, i64, i64, i64, i64, i32, i32, i8, i8, i32, i8, ptr, ptr, ptr, ptr, ptr, ptr, ptr, i32, i64, i64, [8 x i8], i16, ptr, ptr, ptr, i64, i32, i64, [12 x i8], [12 x i8], [32 x i8], i8, i8, ptr, ptr, %union.mbedtls_ssl_user_data_t }
%struct.mbedtls_md_context_t = type { ptr, ptr, ptr }
%struct.mbedtls_ssl_handshake_params = type { i8, i8, i8, i8, i8, i32, i8, i8, i8, i8, ptr, ptr, ptr, ptr, ptr, i8, i8, i8, i8, i16, i16, [20 x i16], ptr, ptr, %struct.mbedtls_dhm_context, %struct.mbedtls_ecdh_context, i16, i64, i32, i8, [1024 x i8], i64, ptr, ptr, i64, i16, ptr, ptr, ptr, ptr, %struct.anon, ptr, i16, i8, i32, i32, i32, ptr, ptr, ptr, i32, ptr, [8 x i8], i8, [32 x i8], i8, i16, %struct.mbedtls_md_context_t, %struct.mbedtls_md_context_t, i16, i8, %union.anon.1, [64 x i8], [1076 x i8], i64, i32, i32, i8, ptr, ptr, %union.anon.4, %struct.mbedtls_ssl_tls13_handshake_secrets, ptr, i64, ptr }
%struct.mbedtls_dhm_context = type { %struct.mbedtls_mpi, %struct.mbedtls_mpi, %struct.mbedtls_mpi, %struct.mbedtls_mpi, %struct.mbedtls_mpi, %struct.mbedtls_mpi, %struct.mbedtls_mpi, %struct.mbedtls_mpi, %struct.mbedtls_mpi, %struct.mbedtls_mpi }
%struct.mbedtls_ecdh_context = type { i8, i32, i32, %union.anon }
%union.anon = type { %struct.mbedtls_ecdh_context_mbed }
%struct.mbedtls_ecdh_context_mbed = type { %struct.mbedtls_ecp_group, %struct.mbedtls_mpi, %struct.mbedtls_ecp_point, %struct.mbedtls_ecp_point, %struct.mbedtls_mpi }
%struct.mbedtls_ecp_group = type { i32, %struct.mbedtls_mpi, %struct.mbedtls_mpi, %struct.mbedtls_mpi, %struct.mbedtls_ecp_point, %struct.mbedtls_mpi, i64, i64, i32, ptr, ptr, ptr, ptr, ptr, i64 }
%struct.mbedtls_ecp_point = type { %struct.mbedtls_mpi, %struct.mbedtls_mpi, %struct.mbedtls_mpi }
%struct.anon = type { i64, i8, [4 x %struct.mbedtls_ssl_hs_buffer], %struct.anon.0 }
%struct.mbedtls_ssl_hs_buffer = type { i8, ptr, i64 }
%struct.anon.0 = type { ptr, i64, i32 }
%union.anon.1 = type { %struct.anon.2 }
%struct.anon.2 = type { i8, [64 x i8], i64 }
%union.anon.4 = type { [64 x i8] }
%struct.mbedtls_ssl_tls13_handshake_secrets = type { [64 x i8], [64 x i8] }

; Function Attrs: nounwind uwtable
define hidden void @mbedtls_ssl_session_reset_msg_layer(ptr noundef %0, i32 noundef %1) #0 {
  %3 = alloca ptr, align 8
  %4 = alloca i32, align 4
  %5 = alloca i64, align 8
  %6 = alloca i64, align 8
  store ptr %0, ptr %3, align 8, !tbaa !27
  store i32 %1, ptr %4, align 4, !tbaa !10
  call void @llvm.lifetime.start.p0(i64 8, ptr %5) #11
  store i64 16765, ptr %5, align 8, !tbaa !8
  call void @llvm.lifetime.start.p0(i64 8, ptr %6) #11
  store i64 16765, ptr %6, align 8, !tbaa !8
  %7 = load ptr, ptr %3, align 8, !tbaa !27
  call void @mbedtls_ssl_set_timer(ptr noundef %7, i32 noundef 0)
  %8 = load ptr, ptr %3, align 8, !tbaa !27
  call void @mbedtls_ssl_reset_in_out_pointers(ptr noundef %8)
  %9 = load ptr, ptr %3, align 8, !tbaa !27
  %10 = getelementptr inbounds nuw %struct.mbedtls_ssl_context, ptr %9, i32 0, i32 32
  store ptr null, ptr %10, align 8, !tbaa !125
  %11 = load ptr, ptr %3, align 8, !tbaa !27
  %12 = getelementptr inbounds nuw %struct.mbedtls_ssl_context, ptr %11, i32 0, i32 41
  store i32 0, ptr %12, align 8, !tbaa !126
  %13 = load ptr, ptr %3, align 8, !tbaa !27
  %14 = getelementptr inbounds nuw %struct.mbedtls_ssl_context, ptr %13, i32 0, i32 33
  store i32 0, ptr %14, align 8, !tbaa !127
  %15 = load ptr, ptr %3, align 8, !tbaa !27
  %16 = getelementptr inbounds nuw %struct.mbedtls_ssl_context, ptr %15, i32 0, i32 34
  store i64 0, ptr %16, align 8, !tbaa !128
  %17 = load ptr, ptr %3, align 8, !tbaa !27
  %18 = getelementptr inbounds nuw %struct.mbedtls_ssl_context, ptr %17, i32 0, i32 40
  store i64 0, ptr %18, align 8, !tbaa !129
  %19 = load ptr, ptr %3, align 8, !tbaa !27
  %20 = getelementptr inbounds nuw %struct.mbedtls_ssl_context, ptr %19, i32 0, i32 42
  store i32 0, ptr %20, align 4, !tbaa !130
  %21 = load ptr, ptr %3, align 8, !tbaa !27
  %22 = getelementptr inbounds nuw %struct.mbedtls_ssl_context, ptr %21, i32 0, i32 17
  store ptr null, ptr %22, align 8, !tbaa !40
  %23 = load ptr, ptr %3, align 8, !tbaa !27
  %24 = getelementptr inbounds nuw %struct.mbedtls_ssl_context, ptr %23, i32 0, i32 37
  store i64 0, ptr %24, align 8, !tbaa !131
  %25 = load ptr, ptr %3, align 8, !tbaa !27
  %26 = getelementptr inbounds nuw %struct.mbedtls_ssl_context, ptr %25, i32 0, i32 36
  store i16 0, ptr %26, align 8, !tbaa !132
  %27 = load i32, ptr %4, align 4, !tbaa !10
  %28 = icmp eq i32 %27, 0
  br i1 %28, label %29, label %36

29:                                               ; preds = %2
  %30 = load ptr, ptr %3, align 8, !tbaa !27
  %31 = getelementptr inbounds nuw %struct.mbedtls_ssl_context, ptr %30, i32 0, i32 35
  store i64 0, ptr %31, align 8, !tbaa !133
  %32 = load ptr, ptr %3, align 8, !tbaa !27
  %33 = getelementptr inbounds nuw %struct.mbedtls_ssl_context, ptr %32, i32 0, i32 25
  %34 = load ptr, ptr %33, align 8, !tbaa !92
  %35 = load i64, ptr %5, align 8, !tbaa !8
  call void @llvm.memset.p0.i64(ptr align 1 %34, i8 0, i64 %35, i1 false)
  br label %36

36:                                               ; preds = %29, %2
  %37 = load ptr, ptr %3, align 8, !tbaa !27
  %38 = getelementptr inbounds nuw %struct.mbedtls_ssl_context, ptr %37, i32 0, i32 43
  store i8 0, ptr %38, align 8, !tbaa !134
  %39 = load ptr, ptr %3, align 8, !tbaa !27
  %40 = getelementptr inbounds nuw %struct.mbedtls_ssl_context, ptr %39, i32 0, i32 54
  store i32 0, ptr %40, align 8, !tbaa !135
  %41 = load ptr, ptr %3, align 8, !tbaa !27
  %42 = getelementptr inbounds nuw %struct.mbedtls_ssl_context, ptr %41, i32 0, i32 55
  store i64 0, ptr %42, align 8, !tbaa !136
  %43 = load ptr, ptr %3, align 8, !tbaa !27
  %44 = getelementptr inbounds nuw %struct.mbedtls_ssl_context, ptr %43, i32 0, i32 56
  store i64 0, ptr %44, align 8, !tbaa !137
  %45 = load ptr, ptr %3, align 8, !tbaa !27
  %46 = getelementptr inbounds nuw %struct.mbedtls_ssl_context, ptr %45, i32 0, i32 47
  %47 = load ptr, ptr %46, align 8, !tbaa !91
  %48 = load i64, ptr %6, align 8, !tbaa !8
  call void @llvm.memset.p0.i64(ptr align 1 %47, i8 0, i64 %48, i1 false)
  %49 = load ptr, ptr %3, align 8, !tbaa !27
  %50 = getelementptr inbounds nuw %struct.mbedtls_ssl_context, ptr %49, i32 0, i32 57
  %51 = getelementptr inbounds [8 x i8], ptr %50, i64 0, i64 0
  call void @llvm.memset.p0.i64(ptr align 8 %51, i8 0, i64 8, i1 false)
  %52 = load ptr, ptr %3, align 8, !tbaa !27
  %53 = getelementptr inbounds nuw %struct.mbedtls_ssl_context, ptr %52, i32 0, i32 18
  store ptr null, ptr %53, align 8, !tbaa !108
  %54 = load ptr, ptr %3, align 8, !tbaa !27
  call void @mbedtls_ssl_dtls_replay_reset(ptr noundef %54)
  %55 = load ptr, ptr %3, align 8, !tbaa !27
  %56 = getelementptr inbounds nuw %struct.mbedtls_ssl_context, ptr %55, i32 0, i32 19
  %57 = load ptr, ptr %56, align 8, !tbaa !138
  %58 = icmp ne ptr %57, null
  br i1 %58, label %59, label %68

59:                                               ; preds = %36
  %60 = load ptr, ptr %3, align 8, !tbaa !27
  %61 = getelementptr inbounds nuw %struct.mbedtls_ssl_context, ptr %60, i32 0, i32 19
  %62 = load ptr, ptr %61, align 8, !tbaa !138
  call void @mbedtls_ssl_transform_free(ptr noundef %62)
  %63 = load ptr, ptr %3, align 8, !tbaa !27
  %64 = getelementptr inbounds nuw %struct.mbedtls_ssl_context, ptr %63, i32 0, i32 19
  %65 = load ptr, ptr %64, align 8, !tbaa !138
  call void @free(ptr noundef %65) #11
  %66 = load ptr, ptr %3, align 8, !tbaa !27
  %67 = getelementptr inbounds nuw %struct.mbedtls_ssl_context, ptr %66, i32 0, i32 19
  store ptr null, ptr %67, align 8, !tbaa !138
  br label %68

68:                                               ; preds = %59, %36
  %69 = load ptr, ptr %3, align 8, !tbaa !27
  %70 = getelementptr inbounds nuw %struct.mbedtls_ssl_context, ptr %69, i32 0, i32 21
  %71 = load ptr, ptr %70, align 8, !tbaa !139
  call void @mbedtls_ssl_transform_free(ptr noundef %71)
  %72 = load ptr, ptr %3, align 8, !tbaa !27
  %73 = getelementptr inbounds nuw %struct.mbedtls_ssl_context, ptr %72, i32 0, i32 21
  %74 = load ptr, ptr %73, align 8, !tbaa !139
  call void @free(ptr noundef %74) #11
  %75 = load ptr, ptr %3, align 8, !tbaa !27
  %76 = getelementptr inbounds nuw %struct.mbedtls_ssl_context, ptr %75, i32 0, i32 21
  store ptr null, ptr %76, align 8, !tbaa !139
  %77 = load ptr, ptr %3, align 8, !tbaa !27
  %78 = getelementptr inbounds nuw %struct.mbedtls_ssl_context, ptr %77, i32 0, i32 16
  %79 = load ptr, ptr %78, align 8, !tbaa !78
  %80 = icmp ne ptr %79, null
  br i1 %80, label %81, label %96

81:                                               ; preds = %68
  %82 = load ptr, ptr %3, align 8, !tbaa !27
  %83 = getelementptr inbounds nuw %struct.mbedtls_ssl_context, ptr %82, i32 0, i32 16
  %84 = load ptr, ptr %83, align 8, !tbaa !78
  %85 = getelementptr inbounds nuw %struct.mbedtls_ssl_handshake_params, ptr %84, i32 0, i32 69
  %86 = load ptr, ptr %85, align 8, !tbaa !140
  call void @mbedtls_ssl_transform_free(ptr noundef %86)
  %87 = load ptr, ptr %3, align 8, !tbaa !27
  %88 = getelementptr inbounds nuw %struct.mbedtls_ssl_context, ptr %87, i32 0, i32 16
  %89 = load ptr, ptr %88, align 8, !tbaa !78
  %90 = getelementptr inbounds nuw %struct.mbedtls_ssl_handshake_params, ptr %89, i32 0, i32 69
  %91 = load ptr, ptr %90, align 8, !tbaa !140
  call void @free(ptr noundef %91) #11
  %92 = load ptr, ptr %3, align 8, !tbaa !27
  %93 = getelementptr inbounds nuw %struct.mbedtls_ssl_context, ptr %92, i32 0, i32 16
  %94 = load ptr, ptr %93, align 8, !tbaa !78
  %95 = getelementptr inbounds nuw %struct.mbedtls_ssl_handshake_params, ptr %94, i32 0, i32 69
  store ptr null, ptr %95, align 8, !tbaa !140
  br label %96

96:                                               ; preds = %81, %68
  call void @llvm.lifetime.end.p0(i64 8, ptr %6) #11
  call void @llvm.lifetime.end.p0(i64 8, ptr %5) #11
  ret void
}