; Function Attrs: nounwind uwtable
define hidden void @mbedtls_ssl_session_reset_msg_layer(ptr noundef %0, i32 noundef %1) local_unnamed_addr #1 {
  tail call void @mbedtls_ssl_set_timer(ptr noundef %0, i32 noundef 0) #26
  tail call void @mbedtls_ssl_reset_in_out_pointers(ptr noundef %0) #26
  %3 = getelementptr inbounds nuw i8, ptr %0, i64 240
  store ptr null, ptr %3, align 8, !tbaa !112
  %4 = getelementptr inbounds nuw i8, ptr %0, i64 248
  store i32 0, ptr %4, align 8, !tbaa !113
  %5 = getelementptr inbounds nuw i8, ptr %0, i64 256
  store i64 0, ptr %5, align 8, !tbaa !114
  %6 = getelementptr inbounds nuw i8, ptr %0, i64 304
  %7 = getelementptr inbounds nuw i8, ptr %0, i64 120
  store ptr null, ptr %7, align 8, !tbaa !35
  %8 = getelementptr inbounds nuw i8, ptr %0, i64 280
  store i64 0, ptr %8, align 8, !tbaa !115
  %9 = getelementptr inbounds nuw i8, ptr %0, i64 272
  store i16 0, ptr %9, align 8, !tbaa !116
  %10 = icmp eq i32 %1, 0
  tail call void @llvm.memset.p0.i64(ptr noundef nonnull align 8 dereferenceable(16) %6, i8 0, i64 16, i1 false)
  br i1 %10, label %11, label %15

11:                                               ; preds = %2
  %12 = getelementptr inbounds nuw i8, ptr %0, i64 264
  store i64 0, ptr %12, align 8, !tbaa !117
  %13 = getelementptr inbounds nuw i8, ptr %0, i64 184
  %14 = load ptr, ptr %13, align 8, !tbaa !86
  tail call void @llvm.memset.p0.i64(ptr noundef nonnull align 1 dereferenceable(16765) %14, i8 0, i64 16765, i1 false)
  br label %15

15:                                               ; preds = %11, %2
  %16 = getelementptr inbounds nuw i8, ptr %0, i64 320
  store i8 0, ptr %16, align 8, !tbaa !118
  %17 = getelementptr inbounds nuw i8, ptr %0, i64 392
  store i32 0, ptr %17, align 8, !tbaa !119
  %18 = getelementptr inbounds nuw i8, ptr %0, i64 400
  %19 = getelementptr inbounds nuw i8, ptr %0, i64 336
  tail call void @llvm.memset.p0.i64(ptr noundef nonnull align 8 dereferenceable(16) %18, i8 0, i64 16, i1 false)
  %20 = load ptr, ptr %19, align 8, !tbaa !85
  tail call void @llvm.memset.p0.i64(ptr noundef nonnull align 1 dereferenceable(16765) %20, i8 0, i64 16765, i1 false)
  %21 = getelementptr inbounds nuw i8, ptr %0, i64 416
  store i64 0, ptr %21, align 8
  %22 = getelementptr inbounds nuw i8, ptr %0, i64 128
  store ptr null, ptr %22, align 8, !tbaa !92
  tail call void @mbedtls_ssl_dtls_replay_reset(ptr noundef nonnull %0) #26
  %23 = getelementptr inbounds nuw i8, ptr %0, i64 136
  %24 = load ptr, ptr %23, align 8, !tbaa !120
  %.not = icmp eq ptr %24, null
  br i1 %.not, label %27, label %25

25:                                               ; preds = %15
  tail call void @mbedtls_ssl_transform_free(ptr noundef nonnull %24) #26
  %26 = load ptr, ptr %23, align 8, !tbaa !120
  tail call void @free(ptr noundef %26) #26
  store ptr null, ptr %23, align 8, !tbaa !120
  br label %27

27:                                               ; preds = %25, %15
  %28 = getelementptr inbounds nuw i8, ptr %0, i64 152
  %29 = load ptr, ptr %28, align 8, !tbaa !121
  tail call void @mbedtls_ssl_transform_free(ptr noundef %29) #26
  %30 = load ptr, ptr %28, align 8, !tbaa !121
  tail call void @free(ptr noundef %30) #26
  store ptr null, ptr %28, align 8, !tbaa !121
  %31 = getelementptr inbounds nuw i8, ptr %0, i64 112
  %32 = load ptr, ptr %31, align 8, !tbaa !70
  %.not35 = icmp eq ptr %32, null
  br i1 %.not35, label %41, label %33

33:                                               ; preds = %27
  %34 = getelementptr inbounds nuw i8, ptr %32, i64 3296
  %35 = load ptr, ptr %34, align 8, !tbaa !122
  tail call void @mbedtls_ssl_transform_free(ptr noundef %35) #26
  %36 = load ptr, ptr %31, align 8, !tbaa !70
  %37 = getelementptr inbounds nuw i8, ptr %36, i64 3296
  %38 = load ptr, ptr %37, align 8, !tbaa !122
  tail call void @free(ptr noundef %38) #26
  %39 = load ptr, ptr %31, align 8, !tbaa !70
  %40 = getelementptr inbounds nuw i8, ptr %39, i64 3296
  store ptr null, ptr %40, align 8, !tbaa !122
  br label %41

41:                                               ; preds = %33, %27
  ret void
}